target datalayout = "e-m:e-p270:32:32-p271:32:32-p272:64:64-i64:64-i128:128-f80:128-n8:16:32:64-S128"
target triple = "x86_64-pc-linux-gnu"

; Function Attrs: mustprogress uwtable
define internal noundef zeroext i1 @_ZN12_GLOBAL__N_112_isSepListOfEPFbPKciES1_i(ptr noundef %0, ptr noundef %1, i32 noundef %2) #1 {
  %4 = alloca i1, align 1
  %5 = alloca ptr, align 8
  %6 = alloca ptr, align 8
  %7 = alloca i32, align 4
  %8 = alloca ptr, align 8
  %9 = alloca ptr, align 8
  %10 = alloca i32, align 4
  store ptr %0, ptr %5, align 8, !tbaa !22
  store ptr %1, ptr %6, align 8, !tbaa !17
  store i32 %2, ptr %7, align 4, !tbaa !14
  call void @llvm.lifetime.start.p0(i64 8, ptr %8) #12
  %11 = load ptr, ptr %6, align 8, !tbaa !17
  store ptr %11, ptr %8, align 8, !tbaa !17
  call void @llvm.lifetime.start.p0(i64 8, ptr %9) #12
  store ptr null, ptr %9, align 8, !tbaa !17
  %12 = load i32, ptr %7, align 4, !tbaa !14
  %13 = icmp slt i32 %12, 0
  br i1 %13, label %14, label %18

14:                                               ; preds = %3
  %15 = load ptr, ptr %6, align 8, !tbaa !17
  %16 = call i64 @strlen(ptr noundef %15) #15
  %17 = trunc i64 %16 to i32
  store i32 %17, ptr %7, align 4, !tbaa !14
  br label %18

18:                                               ; preds = %14, %3
  br label %19

19:                                               ; preds = %55, %18
  %20 = load ptr, ptr %8, align 8, !tbaa !17
  %21 = load ptr, ptr %6, align 8, !tbaa !17
  %22 = ptrtoint ptr %20 to i64
  %23 = ptrtoint ptr %21 to i64
  %24 = sub i64 %22, %23
  %25 = load i32, ptr %7, align 4, !tbaa !14
  %26 = sext i32 %25 to i64
  %27 = icmp slt i64 %24, %26
  br i1 %27, label %28, label %58

28:                                               ; preds = %19
  %29 = load ptr, ptr %8, align 8, !tbaa !17
  %30 = load i8, ptr %29, align 1, !tbaa !23
  %31 = sext i8 %30 to i32
  %32 = icmp eq i32 %31, 45
  br i1 %32, label %33, label %49

33:                                               ; preds = %28
  %34 = load ptr, ptr %9, align 8, !tbaa !17
  %35 = icmp eq ptr %34, null
  br i1 %35, label %36, label %37

36:                                               ; preds = %33
  store i1 false, ptr %4, align 1
  store i32 1, ptr %10, align 4
  br label %72

37:                                               ; preds = %33
  %38 = load ptr, ptr %5, align 8, !tbaa !22
  %39 = load ptr, ptr %9, align 8, !tbaa !17
  %40 = load ptr, ptr %8, align 8, !tbaa !17
  %41 = load ptr, ptr %9, align 8, !tbaa !17
  %42 = ptrtoint ptr %40 to i64
  %43 = ptrtoint ptr %41 to i64
  %44 = sub i64 %42, %43
  %45 = trunc i64 %44 to i32
  %46 = call noundef zeroext i1 %38(ptr noundef %39, i32 noundef %45)
  br i1 %46, label %48, label %47

47:                                               ; preds = %37
  store i1 false, ptr %4, align 1
  store i32 1, ptr %10, align 4
  br label %72

48:                                               ; preds = %37
  store ptr null, ptr %9, align 8, !tbaa !17
  br label %55

49:                                               ; preds = %28
  %50 = load ptr, ptr %9, align 8, !tbaa !17
  %51 = icmp eq ptr %50, null
  br i1 %51, label %52, label %54

52:                                               ; preds = %49
  %53 = load ptr, ptr %8, align 8, !tbaa !17
  store ptr %53, ptr %9, align 8, !tbaa !17
  br label %54

54:                                               ; preds = %52, %49
  br label %55

55:                                               ; preds = %54, %48
  %56 = load ptr, ptr %8, align 8, !tbaa !17
  %57 = getelementptr inbounds nuw i8, ptr %56, i32 1
  store ptr %57, ptr %8, align 8, !tbaa !17
  br label %19, !llvm.loop !27

58:                                               ; preds = %19
  %59 = load ptr, ptr %9, align 8, !tbaa !17
  %60 = icmp eq ptr %59, null
  br i1 %60, label %61, label %62

61:                                               ; preds = %58
  store i1 false, ptr %4, align 1
  store i32 1, ptr %10, align 4
  br label %72

62:                                               ; preds = %58
  %63 = load ptr, ptr %5, align 8, !tbaa !22
  %64 = load ptr, ptr %9, align 8, !tbaa !17
  %65 = load ptr, ptr %8, align 8, !tbaa !17
  %66 = load ptr, ptr %9, align 8, !tbaa !17
  %67 = ptrtoint ptr %65 to i64
  %68 = ptrtoint ptr %66 to i64
  %69 = sub i64 %67, %68
  %70 = trunc i64 %69 to i32
  %71 = call noundef zeroext i1 %63(ptr noundef %64, i32 noundef %70)
  store i1 %71, ptr %4, align 1
  store i32 1, ptr %10, align 4
  br label %72

72:                                               ; preds = %62, %61, %47, %36
  call void @llvm.lifetime.end.p0(i64 8, ptr %9) #12
  call void @llvm.lifetime.end.p0(i64 8, ptr %8) #12
  %73 = load i1, ptr %4, align 1
  ret i1 %73
}

; Function Attrs: mustprogress uwtable
define noundef zeroext i1 @_Z34ultag_isUnicodeLocaleAttributes_77PKci(ptr noundef %0, i32 noundef %1) #1 {
  %3 = alloca ptr, align 8
  %4 = alloca i32, align 4
  store ptr %0, ptr %3, align 8, !tbaa !17
  store i32 %1, ptr %4, align 4, !tbaa !14
  %5 = load ptr, ptr %3, align 8, !tbaa !17
  %6 = load i32, ptr %4, align 4, !tbaa !14
  %7 = call noundef zeroext i1 @_ZN12_GLOBAL__N_112_isSepListOfEPFbPKciES1_i(ptr noundef @_Z33ultag_isUnicodeLocaleAttribute_77PKci, ptr noundef %5, i32 noundef %6)
  ret i1 %7
}