; Function Attrs: mustprogress uwtable
define noundef zeroext i1 @_Z34ultag_isUnicodeLocaleAttributes_77PKci(ptr noundef %0, i32 noundef %1) local_unnamed_addr #1 {
  %3 = icmp slt i32 %1, 0
  br i1 %3, label %4, label %7

4:                                                ; preds = %2
  %5 = tail call i64 @strlen(ptr noundef nonnull dereferenceable(1) %0) #20
  %6 = trunc i64 %5 to i32
  br label %7

7:                                                ; preds = %4, %2
  %.021.i = phi i32 [ %6, %4 ], [ %1, %2 ]
  %8 = ptrtoint ptr %0 to i64
  %9 = sext i32 %.021.i to i64
  %10 = icmp sgt i32 %.021.i, 0
  br i1 %10, label %.lr.ph.i, label %_ZN12_GLOBAL__N_112_isSepListOfEPFbPKciES1_i.exit

.lr.ph.i:                                         ; preds = %7, %.lr.ph.i.backedge
  %11 = phi i64 [ %.be, %.lr.ph.i.backedge ], [ %8, %7 ]
  %.027.i = phi ptr [ %.027.i.be, %.lr.ph.i.backedge ], [ null, %7 ]
  %.02026.i = phi ptr [ %.02026.i.be, %.lr.ph.i.backedge ], [ %0, %7 ]
  %12 = load i8, ptr %.02026.i, align 1, !tbaa !15
  %13 = icmp eq i8 %12, 45
  %14 = icmp eq ptr %.027.i, null
  br i1 %13, label %15, label %_Z33ultag_isUnicodeLocaleAttribute_77PKci.exit9

15:                                               ; preds = %.lr.ph.i
  br i1 %14, label %_ZN12_GLOBAL__N_112_isSepListOfEPFbPKciES1_i.exit, label %16

16:                                               ; preds = %15
  %17 = ptrtoint ptr %.027.i to i64
  %18 = sub i64 %11, %17
  %19 = trunc i64 %18 to i32
  %20 = icmp slt i32 %19, 0
  br i1 %20, label %21, label %24

21:                                               ; preds = %16
  %22 = tail call i64 @strlen(ptr noundef nonnull readonly dereferenceable(1) %.027.i) #20
  %23 = trunc i64 %22 to i32
  br label %24

24:                                               ; preds = %21, %16
  %.08.i.i1 = phi i32 [ %23, %21 ], [ %19, %16 ]
  %25 = add i32 %.08.i.i1, -3
  %or.cond.i.i2 = icmp ult i32 %25, 6
  br i1 %or.cond.i.i2, label %26, label %_ZN12_GLOBAL__N_112_isSepListOfEPFbPKciES1_i.exit

26:                                               ; preds = %24
  %wide.trip.count.i.i.i4 = zext nneg i32 %.08.i.i1 to i64
  br label %27

27:                                               ; preds = %35, %26
  %indvars.iv.i.i.i5 = phi i64 [ 0, %26 ], [ %indvars.iv.next.i.i.i7, %35 ]
  %28 = getelementptr inbounds nuw i8, ptr %.027.i, i64 %indvars.iv.i.i.i5
  %29 = load i8, ptr %28, align 1, !tbaa !15
  %30 = tail call noundef signext i8 @uprv_isASCIILetter_77(i8 noundef signext %29)
  %.not.i.i.i6 = icmp eq i8 %30, 0
  br i1 %.not.i.i.i6, label %31, label %35

31:                                               ; preds = %27
  %32 = load i8, ptr %28, align 1, !tbaa !15
  %33 = add i8 %32, -48
  %34 = icmp ult i8 %33, 10
  br i1 %34, label %35, label %_ZN12_GLOBAL__N_112_isSepListOfEPFbPKciES1_i.exit

35:                                               ; preds = %31, %27
  %indvars.iv.next.i.i.i7 = add nuw nsw i64 %indvars.iv.i.i.i5, 1
  %exitcond.not.i.i.i8 = icmp eq i64 %indvars.iv.next.i.i.i7, %wide.trip.count.i.i.i4
  br i1 %exitcond.not.i.i.i8, label %_Z33ultag_isUnicodeLocaleAttribute_77PKci.exit9.thread11, label %27, !llvm.loop !20

_Z33ultag_isUnicodeLocaleAttribute_77PKci.exit9:  ; preds = %.lr.ph.i
  %spec.select.i = select i1 %14, ptr %.02026.i, ptr %.027.i
  %36 = getelementptr inbounds nuw i8, ptr %.02026.i, i64 1
  %37 = ptrtoint ptr %36 to i64
  %38 = sub i64 %37, %8
  %39 = icmp slt i64 %38, %9
  br i1 %39, label %.lr.ph.i.backedge, label %._crit_edge.i

.lr.ph.i.backedge:                                ; preds = %_Z33ultag_isUnicodeLocaleAttribute_77PKci.exit9, %_Z33ultag_isUnicodeLocaleAttribute_77PKci.exit9.thread11
  %.be = phi i64 [ %37, %_Z33ultag_isUnicodeLocaleAttribute_77PKci.exit9 ], [ %41, %_Z33ultag_isUnicodeLocaleAttribute_77PKci.exit9.thread11 ]
  %.027.i.be = phi ptr [ %spec.select.i, %_Z33ultag_isUnicodeLocaleAttribute_77PKci.exit9 ], [ null, %_Z33ultag_isUnicodeLocaleAttribute_77PKci.exit9.thread11 ]
  %.02026.i.be = phi ptr [ %36, %_Z33ultag_isUnicodeLocaleAttribute_77PKci.exit9 ], [ %40, %_Z33ultag_isUnicodeLocaleAttribute_77PKci.exit9.thread11 ]
  br label %.lr.ph.i, !llvm.loop !19

_Z33ultag_isUnicodeLocaleAttribute_77PKci.exit9.thread11: ; preds = %35
  %40 = getelementptr inbounds nuw i8, ptr %.02026.i, i64 1
  %41 = ptrtoint ptr %40 to i64
  %42 = sub i64 %41, %8
  %43 = icmp slt i64 %42, %9
  br i1 %43, label %.lr.ph.i.backedge, label %_ZN12_GLOBAL__N_112_isSepListOfEPFbPKciES1_i.exit

._crit_edge.i:                                    ; preds = %_Z33ultag_isUnicodeLocaleAttribute_77PKci.exit9
  %44 = ptrtoint ptr %spec.select.i to i64
  %45 = sub i64 %37, %44
  %46 = trunc i64 %45 to i32
  %47 = icmp slt i32 %46, 0
  br i1 %47, label %48, label %51

48:                                               ; preds = %._crit_edge.i
  %49 = tail call i64 @strlen(ptr noundef nonnull readonly dereferenceable(1) %spec.select.i) #20
  %50 = trunc i64 %49 to i32
  br label %51

51:                                               ; preds = %48, %._crit_edge.i
  %.08.i.i = phi i32 [ %50, %48 ], [ %46, %._crit_edge.i ]
  %52 = add i32 %.08.i.i, -3
  %or.cond.i.i = icmp ult i32 %52, 6
  br i1 %or.cond.i.i, label %53, label %_ZN12_GLOBAL__N_112_isSepListOfEPFbPKciES1_i.exit

53:                                               ; preds = %51
  %wide.trip.count.i.i.i = zext nneg i32 %.08.i.i to i64
  br label %54

54:                                               ; preds = %62, %53
  %indvars.iv.i.i.i = phi i64 [ 0, %53 ], [ %indvars.iv.next.i.i.i, %62 ]
  %55 = getelementptr inbounds nuw i8, ptr %spec.select.i, i64 %indvars.iv.i.i.i
  %56 = load i8, ptr %55, align 1, !tbaa !15
  %57 = tail call noundef signext i8 @uprv_isASCIILetter_77(i8 noundef signext %56)
  %.not.i.i.i = icmp eq i8 %57, 0
  br i1 %.not.i.i.i, label %58, label %62

58:                                               ; preds = %54
  %59 = load i8, ptr %55, align 1, !tbaa !15
  %60 = add i8 %59, -48
  %61 = icmp ult i8 %60, 10
  br i1 %61, label %62, label %_ZN12_GLOBAL__N_112_isSepListOfEPFbPKciES1_i.exit

62:                                               ; preds = %58, %54
  %indvars.iv.next.i.i.i = add nuw nsw i64 %indvars.iv.i.i.i, 1
  %exitcond.not.i.i.i = icmp eq i64 %indvars.iv.next.i.i.i, %wide.trip.count.i.i.i
  br i1 %exitcond.not.i.i.i, label %_ZN12_GLOBAL__N_112_isSepListOfEPFbPKciES1_i.exit, label %54, !llvm.loop !20

_ZN12_GLOBAL__N_112_isSepListOfEPFbPKciES1_i.exit: ; preds = %_Z33ultag_isUnicodeLocaleAttribute_77PKci.exit9.thread11, %24, %15, %31, %62, %58, %51, %7
  %.022.i = phi i1 [ false, %7 ], [ false, %51 ], [ true, %62 ], [ false, %58 ], [ false, %31 ], [ false, %15 ], [ false, %24 ], [ false, %_Z33ultag_isUnicodeLocaleAttribute_77PKci.exit9.thread11 ]
  ret i1 %.022.i
}